target datalayout = "e-m:e-p270:32:32-p271:32:32-p272:64:64-i64:64-i128:128-f80:128-n8:16:32:64-S128"
target triple = "x86_64-pc-linux-gnu"

%"class.icu_77::Transliterator" = type <{ %"class.icu_77::UObject", %"class.icu_77::UnicodeString", ptr, i32, [4 x i8] }>
%"class.icu_77::UObject" = type { ptr }
%"class.icu_77::UnicodeString" = type { %"class.icu_77::Replaceable", %"union.icu_77::UnicodeString::StackBufferOrFields" }
%"class.icu_77::Replaceable" = type { %"class.icu_77::UObject" }
%"union.icu_77::UnicodeString::StackBufferOrFields" = type { %struct.anon.0, [32 x i8] }
%struct.anon.0 = type { i16, i32, i32, ptr }

@_ZTVN6icu_777UObjectE = available_externally unnamed_addr constant { [5 x ptr] } { [5 x ptr] [ptr null, ptr @_ZTIN6icu_777UObjectE, ptr @_ZN6icu_777UObjectD1Ev, ptr @_ZN6icu_777UObjectD0Ev, ptr @_ZNK6icu_777UObject17getDynamicClassIDEv] }, align 8

; Function Attrs: inlinehint mustprogress nounwind uwtable
define linkonce_odr void @_ZN6icu_7713UnicodeString14setShortLengthEi(ptr noundef nonnull align 8 dereferenceable(64) %0, i32 noundef %1) #2 comdat align 2 {
  %3 = alloca ptr, align 8
  %4 = alloca i32, align 4
  store ptr %0, ptr %3, align 8, !tbaa !25
  store i32 %1, ptr %4, align 4, !tbaa !14
  %5 = load ptr, ptr %3, align 8
  %6 = getelementptr inbounds nuw %"class.icu_77::UnicodeString", ptr %5, i32 0, i32 1
  %7 = getelementptr inbounds nuw %struct.anon.0, ptr %6, i32 0, i32 0
  %8 = load i16, ptr %7, align 8, !tbaa !41
  %9 = sext i16 %8 to i32
  %10 = and i32 %9, 31
  %11 = load i32, ptr %4, align 4, !tbaa !14
  %12 = shl i32 %11, 5
  %13 = or i32 %10, %12
  %14 = trunc i32 %13 to i16
  %15 = getelementptr inbounds nuw %"class.icu_77::UnicodeString", ptr %5, i32 0, i32 1
  %16 = getelementptr inbounds nuw %struct.anon.0, ptr %15, i32 0, i32 0
  store i16 %14, ptr %16, align 8, !tbaa !41
  ret void
}

; Function Attrs: inlinehint mustprogress uwtable
define linkonce_odr void @_ZN6icu_7713UnicodeString9setLengthEi(ptr noundef nonnull align 8 dereferenceable(64) %0, i32 noundef %1) #3 comdat align 2 {
  %3 = alloca ptr, align 8
  %4 = alloca i32, align 4
  store ptr %0, ptr %3, align 8, !tbaa !25
  store i32 %1, ptr %4, align 4, !tbaa !14
  %5 = load ptr, ptr %3, align 8
  %6 = load i32, ptr %4, align 4, !tbaa !14
  %7 = icmp sle i32 %6, 1023
  br i1 %7, label %8, label %10

8:                                                ; preds = %2
  %9 = load i32, ptr %4, align 4, !tbaa !14
  call void @_ZN6icu_7713UnicodeString14setShortLengthEi(ptr noundef nonnull align 8 dereferenceable(64) %5, i32 noundef %9)
  br label %20

10:                                               ; preds = %2
  %11 = getelementptr inbounds nuw %"class.icu_77::UnicodeString", ptr %5, i32 0, i32 1
  %12 = getelementptr inbounds nuw %struct.anon.0, ptr %11, i32 0, i32 0
  %13 = load i16, ptr %12, align 8, !tbaa !41
  %14 = sext i16 %13 to i32
  %15 = or i32 %14, 65504
  %16 = trunc i32 %15 to i16
  store i16 %16, ptr %12, align 8, !tbaa !41
  %17 = load i32, ptr %4, align 4, !tbaa !14
  %18 = getelementptr inbounds nuw %"class.icu_77::UnicodeString", ptr %5, i32 0, i32 1
  %19 = getelementptr inbounds nuw %struct.anon.0, ptr %18, i32 0, i32 1
  store i32 %17, ptr %19, align 4, !tbaa !41
  br label %20

20:                                               ; preds = %10, %8
  ret void
}

; Function Attrs: inlinehint mustprogress nounwind uwtable
define linkonce_odr noundef signext i8 @_ZNK6icu_7713UnicodeString7isBogusEv(ptr noundef nonnull align 8 dereferenceable(64) %0) #2 comdat align 2 {
  %2 = alloca ptr, align 8
  store ptr %0, ptr %2, align 8, !tbaa !25
  %3 = load ptr, ptr %2, align 8
  %4 = getelementptr inbounds nuw %"class.icu_77::UnicodeString", ptr %3, i32 0, i32 1
  %5 = getelementptr inbounds nuw %struct.anon.0, ptr %4, i32 0, i32 0
  %6 = load i16, ptr %5, align 8, !tbaa !41
  %7 = sext i16 %6 to i32
  %8 = and i32 %7, 1
  %9 = trunc i32 %8 to i8
  ret i8 %9
}

; Function Attrs: inlinehint mustprogress nounwind uwtable
define linkonce_odr noundef i32 @_ZNK6icu_7713UnicodeString14getShortLengthEv(ptr noundef nonnull align 8 dereferenceable(64) %0) #2 comdat align 2 {
  %2 = alloca ptr, align 8
  store ptr %0, ptr %2, align 8, !tbaa !25
  %3 = load ptr, ptr %2, align 8
  %4 = getelementptr inbounds nuw %"class.icu_77::UnicodeString", ptr %3, i32 0, i32 1
  %5 = getelementptr inbounds nuw %struct.anon.0, ptr %4, i32 0, i32 0
  %6 = load i16, ptr %5, align 8, !tbaa !41
  %7 = sext i16 %6 to i32
  %8 = ashr i32 %7, 5
  ret i32 %8
}

; Function Attrs: inlinehint mustprogress nounwind uwtable
define linkonce_odr noundef signext i8 @_ZNK6icu_7713UnicodeString14hasShortLengthEv(ptr noundef nonnull align 8 dereferenceable(64) %0) #2 comdat align 2 {
  %2 = alloca ptr, align 8
  store ptr %0, ptr %2, align 8, !tbaa !25
  %3 = load ptr, ptr %2, align 8
  %4 = getelementptr inbounds nuw %"class.icu_77::UnicodeString", ptr %3, i32 0, i32 1
  %5 = getelementptr inbounds nuw %struct.anon.0, ptr %4, i32 0, i32 0
  %6 = load i16, ptr %5, align 8, !tbaa !41
  %7 = sext i16 %6 to i32
  %8 = icmp sge i32 %7, 0
  %9 = zext i1 %8 to i8
  ret i8 %9
}

; Function Attrs: inlinehint mustprogress uwtable
define linkonce_odr noundef signext i8 @_ZN6icu_7713UnicodeString8truncateEi(ptr noundef nonnull align 8 dereferenceable(64) %0, i32 noundef %1) #3 comdat align 2 {
  %3 = alloca i8, align 1
  %4 = alloca ptr, align 8
  %5 = alloca i32, align 4
  store ptr %0, ptr %4, align 8, !tbaa !25
  store i32 %1, ptr %5, align 4, !tbaa !14
  %6 = load ptr, ptr %4, align 8
  %7 = call noundef signext i8 @_ZNK6icu_7713UnicodeString7isBogusEv(ptr noundef nonnull align 8 dereferenceable(64) %6)
  %8 = icmp ne i8 %7, 0
  br i1 %8, label %9, label %13

9:                                                ; preds = %2
  %10 = load i32, ptr %5, align 4, !tbaa !14
  %11 = icmp eq i32 %10, 0
  br i1 %11, label %12, label %13

12:                                               ; preds = %9
  call void @_ZN6icu_7713UnicodeString7unBogusEv(ptr noundef nonnull align 8 dereferenceable(64) %6)
  store i8 0, ptr %3, align 1
  br label %20

13:                                               ; preds = %9, %2
  %14 = load i32, ptr %5, align 4, !tbaa !14
  %15 = call noundef i32 @_ZNK6icu_7713UnicodeString6lengthEv(ptr noundef nonnull align 8 dereferenceable(64) %6)
  %16 = icmp ult i32 %14, %15
  br i1 %16, label %17, label %19

17:                                               ; preds = %13
  %18 = load i32, ptr %5, align 4, !tbaa !14
  call void @_ZN6icu_7713UnicodeString9setLengthEi(ptr noundef nonnull align 8 dereferenceable(64) %6, i32 noundef %18)
  store i8 1, ptr %3, align 1
  br label %20

19:                                               ; preds = %13
  store i8 0, ptr %3, align 1
  br label %20

20:                                               ; preds = %19, %17, %12
  %21 = load i8, ptr %3, align 1
  ret i8 %21
}

; Function Attrs: inlinehint mustprogress uwtable
define linkonce_odr noundef i32 @_ZNK6icu_7713UnicodeString6lengthEv(ptr noundef nonnull align 8 dereferenceable(64) %0) #3 comdat align 2 {
  %2 = alloca ptr, align 8
  store ptr %0, ptr %2, align 8, !tbaa !25
  %3 = load ptr, ptr %2, align 8
  %4 = call noundef signext i8 @_ZNK6icu_7713UnicodeString14hasShortLengthEv(ptr noundef nonnull align 8 dereferenceable(64) %3)
  %5 = icmp ne i8 %4, 0
  br i1 %5, label %6, label %8

6:                                                ; preds = %1
  %7 = call noundef i32 @_ZNK6icu_7713UnicodeString14getShortLengthEv(ptr noundef nonnull align 8 dereferenceable(64) %3)
  br label %12

8:                                                ; preds = %1
  %9 = getelementptr inbounds nuw %"class.icu_77::UnicodeString", ptr %3, i32 0, i32 1
  %10 = getelementptr inbounds nuw %struct.anon.0, ptr %9, i32 0, i32 1
  %11 = load i32, ptr %10, align 4, !tbaa !41
  br label %12

12:                                               ; preds = %8, %6
  %13 = phi i32 [ %7, %6 ], [ %11, %8 ]
  ret i32 %13
}

; Function Attrs: inlinehint mustprogress uwtable
define linkonce_odr noundef nonnull align 8 dereferenceable(64) ptr @_ZN6icu_7713UnicodeString6appendEDs(ptr noundef nonnull align 8 dereferenceable(64) %0, i16 noundef zeroext %1) #3 comdat align 2 {
  %3 = alloca ptr, align 8
  %4 = alloca i16, align 2
  store ptr %0, ptr %3, align 8, !tbaa !25
  store i16 %1, ptr %4, align 2, !tbaa !39
  %5 = load ptr, ptr %3, align 8
  %6 = call noundef nonnull align 8 dereferenceable(64) ptr @_ZN6icu_7713UnicodeString8doAppendEPKDsii(ptr noundef nonnull align 8 dereferenceable(64) %5, ptr noundef %4, i32 noundef 0, i32 noundef 1)
  ret ptr %6
}

; Function Attrs: inlinehint mustprogress nounwind uwtable
define linkonce_odr void @_ZN6icu_777UObjectC2Ev(ptr noundef nonnull align 8 dereferenceable(8) %0) unnamed_addr #2 comdat align 2 {
  %2 = alloca ptr, align 8
  store ptr %0, ptr %2, align 8, !tbaa !37
  %3 = load ptr, ptr %2, align 8
  store ptr getelementptr inbounds inrange(-16, 24) ({ [5 x ptr] }, ptr @_ZTVN6icu_777UObjectE, i32 0, i32 0, i32 2), ptr %3, align 8, !tbaa !29
  ret void
}

; Function Attrs: mustprogress uwtable
define void @_ZN6icu_7714TransliteratorC2ERKNS_13UnicodeStringEPNS_13UnicodeFilterE(ptr noundef nonnull align 8 dereferenceable(84) %0, ptr noundef nonnull align 8 dereferenceable(64) %1, ptr noundef %2) unnamed_addr #1 align 2 personality ptr @__gxx_personality_v0 {
  %4 = alloca ptr, align 8
  %5 = alloca ptr, align 8
  %6 = alloca ptr, align 8
  %7 = alloca ptr, align 8
  %8 = alloca i32, align 4
  store ptr %0, ptr %4, align 8, !tbaa !23
  store ptr %1, ptr %5, align 8, !tbaa !25
  store ptr %2, ptr %6, align 8, !tbaa !27
  %9 = load ptr, ptr %4, align 8
  %10 = getelementptr inbounds i8, ptr %9, i64 0
  call void @llvm.memset.p0.i64(ptr align 8 %10, i8 0, i64 8, i1 false)
  call void @_ZN6icu_777UObjectC2Ev(ptr noundef nonnull align 8 dereferenceable(8) %9) #15
  store ptr getelementptr inbounds inrange(-16, 136) ({ [19 x ptr] }, ptr @_ZTVN6icu_7714TransliteratorE, i32 0, i32 0, i32 2), ptr %9, align 8, !tbaa !29
  %11 = getelementptr inbounds nuw %"class.icu_77::Transliterator", ptr %9, i32 0, i32 1
  %12 = load ptr, ptr %5, align 8, !tbaa !25
  invoke void @_ZN6icu_7713UnicodeStringC1ERKS0_(ptr noundef nonnull align 8 dereferenceable(64) %11, ptr noundef nonnull align 8 dereferenceable(64) %12)
          to label %13 unwind label %27

13:                                               ; preds = %3
  %14 = getelementptr inbounds nuw %"class.icu_77::Transliterator", ptr %9, i32 0, i32 2
  %15 = load ptr, ptr %6, align 8, !tbaa !27
  store ptr %15, ptr %14, align 8, !tbaa !31
  %16 = getelementptr inbounds nuw %"class.icu_77::Transliterator", ptr %9, i32 0, i32 3
  store i32 0, ptr %16, align 8, !tbaa !36
  %17 = getelementptr inbounds nuw %"class.icu_77::Transliterator", ptr %9, i32 0, i32 1
  %18 = invoke noundef nonnull align 8 dereferenceable(64) ptr @_ZN6icu_7713UnicodeString6appendEDs(ptr noundef nonnull align 8 dereferenceable(64) %17, i16 noundef zeroext 0)
          to label %19 unwind label %31

19:                                               ; preds = %13
  %20 = getelementptr inbounds nuw %"class.icu_77::Transliterator", ptr %9, i32 0, i32 1
  %21 = getelementptr inbounds nuw %"class.icu_77::Transliterator", ptr %9, i32 0, i32 1
  %22 = invoke noundef i32 @_ZNK6icu_7713UnicodeString6lengthEv(ptr noundef nonnull align 8 dereferenceable(64) %21)
          to label %23 unwind label %31

23:                                               ; preds = %19
  %24 = sub nsw i32 %22, 1
  %25 = invoke noundef signext i8 @_ZN6icu_7713UnicodeString8truncateEi(ptr noundef nonnull align 8 dereferenceable(64) %20, i32 noundef %24)
          to label %26 unwind label %31

26:                                               ; preds = %23
  ret void

27:                                               ; preds = %3
  %28 = landingpad { ptr, i32 }
          cleanup
  %29 = extractvalue { ptr, i32 } %28, 0
  store ptr %29, ptr %7, align 8
  %30 = extractvalue { ptr, i32 } %28, 1
  store i32 %30, ptr %8, align 4
  br label %35

31:                                               ; preds = %23, %19, %13
  %32 = landingpad { ptr, i32 }
          cleanup
  %33 = extractvalue { ptr, i32 } %32, 0
  store ptr %33, ptr %7, align 8
  %34 = extractvalue { ptr, i32 } %32, 1
  store i32 %34, ptr %8, align 4
  call void @_ZN6icu_7713UnicodeStringD1Ev(ptr noundef nonnull align 8 dereferenceable(64) %11) #15
  br label %35

35:                                               ; preds = %31, %27
  call void @_ZN6icu_777UObjectD2Ev(ptr noundef nonnull align 8 dereferenceable(8) %9) #15
  br label %36

36:                                               ; preds = %35
  %37 = load ptr, ptr %7, align 8
  %38 = load i32, ptr %8, align 4
  %39 = insertvalue { ptr, i32 } poison, ptr %37, 0
  %40 = insertvalue { ptr, i32 } %39, i32 %38, 1
  resume { ptr, i32 } %40
}