; Function Attrs: mustprogress uwtable
define void @_ZN6icu_7714TransliteratorC2ERKNS_13UnicodeStringEPNS_13UnicodeFilterE(ptr noundef nonnull align 8 dereferenceable(84) initializes((0, 8)) %0, ptr noundef nonnull align 8 dereferenceable(64) %1, ptr noundef %2) unnamed_addr #1 align 2 personality ptr @__gxx_personality_v0 {
  %4 = alloca i16, align 2
  store ptr getelementptr inbounds nuw inrange(-16, 136) (i8, ptr @_ZTVN6icu_7714TransliteratorE, i64 16), ptr %0, align 8, !tbaa !15
  %5 = getelementptr inbounds nuw i8, ptr %0, i64 8
  invoke void @_ZN6icu_7713UnicodeStringC1ERKS0_(ptr noundef nonnull align 8 dereferenceable(64) %5, ptr noundef nonnull align 8 dereferenceable(64) %1)
          to label %6 unwind label %33

6:                                                ; preds = %3
  %7 = getelementptr inbounds nuw i8, ptr %0, i64 72
  store ptr %2, ptr %7, align 8, !tbaa !17
  %8 = getelementptr inbounds nuw i8, ptr %0, i64 80
  store i32 0, ptr %8, align 8, !tbaa !23
  call void @llvm.lifetime.start.p0(i64 2, ptr nonnull %4)
  store i16 0, ptr %4, align 2, !tbaa !24
  %9 = invoke noundef nonnull align 8 dereferenceable(64) ptr @_ZN6icu_7713UnicodeString8doAppendEPKDsii(ptr noundef nonnull align 8 dereferenceable(64) %5, ptr noundef nonnull %4, i32 noundef 0, i32 noundef 1)
          to label %10 unwind label %35

10:                                               ; preds = %6
  call void @llvm.lifetime.end.p0(i64 2, ptr nonnull %4)
  %11 = getelementptr inbounds nuw i8, ptr %0, i64 16
  %12 = load i16, ptr %11, align 8, !tbaa !26
  %13 = icmp slt i16 %12, 0
  %14 = ashr i16 %12, 5
  %15 = sext i16 %14 to i32
  %16 = getelementptr inbounds nuw i8, ptr %0, i64 20
  %17 = load i32, ptr %16, align 4
  %18 = select i1 %13, i32 %17, i32 %15
  %19 = add nsw i32 %18, -1
  %20 = and i16 %12, 1
  %21 = icmp ne i16 %20, 0
  %22 = icmp eq i32 %19, 0
  %or.cond.i = and i1 %21, %22
  br i1 %or.cond.i, label %23, label %24

23:                                               ; preds = %10
  invoke void @_ZN6icu_7713UnicodeString7unBogusEv(ptr noundef nonnull align 8 dereferenceable(64) %5)
          to label %_ZN6icu_7713UnicodeString8truncateEi.exit unwind label %35

24:                                               ; preds = %10
  %.not = icmp eq i32 %18, 0
  br i1 %.not, label %_ZN6icu_7713UnicodeString8truncateEi.exit, label %25

25:                                               ; preds = %24
  %26 = icmp slt i32 %18, 1025
  br i1 %26, label %27, label %31

27:                                               ; preds = %25
  %28 = and i16 %12, 31
  %.tr.i.i.i = trunc i32 %19 to i16
  %29 = shl i16 %.tr.i.i.i, 5
  %30 = or disjoint i16 %29, %28
  store i16 %30, ptr %11, align 8, !tbaa !26
  br label %_ZN6icu_7713UnicodeString8truncateEi.exit

31:                                               ; preds = %25
  %32 = or i16 %12, -32
  store i16 %32, ptr %11, align 8, !tbaa !26
  store i32 %19, ptr %16, align 4, !tbaa !26
  br label %_ZN6icu_7713UnicodeString8truncateEi.exit

_ZN6icu_7713UnicodeString8truncateEi.exit:        ; preds = %31, %27, %24, %23
  ret void

33:                                               ; preds = %3
  %34 = landingpad { ptr, i32 }
          cleanup
  br label %37

35:                                               ; preds = %23, %6
  %36 = landingpad { ptr, i32 }
          cleanup
  call void @_ZN6icu_7713UnicodeStringD1Ev(ptr noundef nonnull align 8 dereferenceable(64) %5) #21
  br label %37

37:                                               ; preds = %35, %33
  %.pn = phi { ptr, i32 } [ %36, %35 ], [ %34, %33 ]
  call void @_ZN6icu_777UObjectD2Ev(ptr noundef nonnull align 8 dereferenceable(8) %0) #21
  resume { ptr, i32 } %.pn
}